Certificate:
    Data:
        Version: 3 (0x2)
        Serial Number: 268435457 (0x10000001)
        Signature Algorithm: ecdsa-with-SHA256
        Issuer: C=CN, ST=SC, L=CD, O=gdut, OU=gdut, CN=gdut/emailAddress=gdut.com
        Validity
            Not Before: Nov 25 10:51:46 2022 GMT
            Not After : Nov 25 10:51:46 2023 GMT
        Subject: C=CN, ST=SC, O=gdut, OU=gdut, CN=gdut/emailAddress=gdut.con
        Subject Public Key Info:
            Public Key Algorithm: id-ecPublicKey
                Public-Key: (256 bit)
                pub:
                    04:60:8d:27:d8:d9:42:cf:1b:3c:ca:c1:32:50:ac:
                    5a:29:3a:96:78:16:f9:55:1a:ac:ec:7d:79:5c:27:
                    17:f8:d6:86:30:54:93:20:8c:cd:f9:a1:66:20:0b:
                    27:fe:21:06:5b:76:6d:dc:5b:95:f1:8e:6c:c0:ac:
                    4b:d8:1a:9d:01
                ASN1 OID: prime256v1
                NIST CURVE: P-256
        X509v3 extensions:
            X509v3 Basic Constraints: 
                CA:FALSE
            X509v3 Subject Key Identifier: 
                69:29:97:B2:1C:4A:E7:A6:47:29:A1:C4:2D:2A:F5:19:07:D6:6E:5B
            X509v3 Authority Key Identifier: 
                7F:50:48:23:1C:40:99:66:70:2D:75:2F:BF:82:74:BC:7C:C1:47:F5
    Signature Algorithm: ecdsa-with-SHA256
    Signature Value:
        30:44:02:20:1d:a6:59:0e:97:d8:59:83:60:b6:b2:10:ac:68:
        46:e9:e6:98:1e:55:44:fc:35:42:d5:ce:64:12:44:fa:a9:9b:
        02:20:23:86:9f:0e:b9:9f:bb:a6:96:d8:04:41:cf:57:af:5a:
        55:fe:7b:e8:97:f4:b9:ca:79:cf:55:96:76:99:b7:1f
-----BEGIN CERTIFICATE-----
MIICCzCCAbKgAwIBAgIEEAAAATAKBggqhkjOPQQDAjBtMQswCQYDVQQGEwJDTjEL
MAkGA1UECAwCU0MxCzAJBgNVBAcMAkNEMQ0wCwYDVQQKDARnZHV0MQ0wCwYDVQQL
DARnZHV0MQ0wCwYDVQQDDARnZHV0MRcwFQYJKoZIhvcNAQkBFghnZHV0LmNvbTAe
Fw0yMjExMjUxMDUxNDZaFw0yMzExMjUxMDUxNDZaMGAxCzAJBgNVBAYTAkNOMQsw
CQYDVQQIDAJTQzENMAsGA1UECgwEZ2R1dDENMAsGA1UECwwEZ2R1dDENMAsGA1UE
AwwEZ2R1dDEXMBUGCSqGSIb3DQEJARYIZ2R1dC5jb24wWTATBgcqhkjOPQIBBggq
hkjOPQMBBwNCAARgjSfY2ULPGzzKwTJQrFopOpZ4FvlVGqzsfXlcJxf41oYwVJMg
jM35oWYgCyf+IQZbdm3cW5XxjmzArEvYGp0Bo00wSzAJBgNVHRMEAjAAMB0GA1Ud
DgQWBBRpKZeyHErnpkcpocQtKvUZB9ZuWzAfBgNVHSMEGDAWgBR/UEgjHECZZnAt
dS+/gnS8fMFH9TAKBggqhkjOPQQDAgNHADBEAiAdplkOl9hZg2C2shCsaEbp5pge
VUT8NULVzmQSRPqpmwIgI4afDrmfu6aW2ARBz1evWlX+e+iX9LnKec9VlnaZtx8=
-----END CERTIFICATE-----
